target datalayout = "e-m:e-p270:32:32-p271:32:32-p272:64:64-i64:64-i128:128-f80:128-n8:16:32:64-S128"
target triple = "x86_64-pc-linux-gnu"

@option_strict = internal global i32 1, align 4
@stderr = external global ptr, align 8
@.str.8 = private unnamed_addr constant [42 x i8] c"warning: tag input does not pass fsck: %s\00", align 1
@.str.9 = private unnamed_addr constant [40 x i8] c"error: tag input does not pass fsck: %s\00", align 1
@.str.10 = private unnamed_addr constant [16 x i8] c"builtin/mktag.c\00", align 1
@.str.11 = private unnamed_addr constant [53 x i8] c"%d (FSCK_IGNORE?) should never trigger this callback\00", align 1

; Function Attrs: nounwind uwtable
define internal i32 @mktag_fsck_error_func(ptr noundef %0, ptr noundef %1, i32 noundef %2, i32 noundef %3, ptr noundef %4) #0 {
  %6 = alloca i32, align 4
  %7 = alloca ptr, align 8
  %8 = alloca ptr, align 8
  %9 = alloca i32, align 4
  %10 = alloca i32, align 4
  %11 = alloca ptr, align 8
  store ptr %0, ptr %7, align 8, !tbaa !27
  store ptr %1, ptr %8, align 8, !tbaa !29
  store i32 %2, ptr %9, align 4, !tbaa !4
  store i32 %3, ptr %10, align 4, !tbaa !4
  store ptr %4, ptr %11, align 8, !tbaa !11
  %12 = load i32, ptr %9, align 4, !tbaa !4
  switch i32 %12, label %27 [
    i32 4, label %13
    i32 3, label %22
  ]

13:                                               ; preds = %5
  %14 = load i32, ptr @option_strict, align 4, !tbaa !4
  %15 = icmp ne i32 %14, 0
  br i1 %15, label %21, label %16

16:                                               ; preds = %13
  %17 = load ptr, ptr @stderr, align 8, !tbaa !30
  %18 = call ptr @_(ptr noundef @.str.8)
  %19 = load ptr, ptr %11, align 8, !tbaa !11
  %20 = call i32 (ptr, ptr, ...) @fprintf_ln(ptr noundef %17, ptr noundef %18, ptr noundef %19)
  store i32 0, ptr %6, align 4
  br label %30

21:                                               ; preds = %13
  br label %22

22:                                               ; preds = %5, %21
  %23 = load ptr, ptr @stderr, align 8, !tbaa !30
  %24 = call ptr @_(ptr noundef @.str.9)
  %25 = load ptr, ptr %11, align 8, !tbaa !11
  %26 = call i32 (ptr, ptr, ...) @fprintf_ln(ptr noundef %23, ptr noundef %24, ptr noundef %25)
  store i32 1, ptr %6, align 4
  br label %30

27:                                               ; preds = %5
  %28 = call ptr @_(ptr noundef @.str.11)
  %29 = load i32, ptr %9, align 4, !tbaa !4
  call void (ptr, i32, ptr, ...) @BUG_fl(ptr noundef @.str.10, i32 noundef 45, ptr noundef %28, i32 noundef %29) #8
  unreachable

30:                                               ; preds = %22, %16
  %31 = load i32, ptr %6, align 4
  ret i32 %31
}