; Function Attrs: nounwind uwtable
define internal range(i32 0, 2) i32 @mktag_fsck_error_func(ptr readnone captures(none) %0, ptr readnone captures(none) %1, i32 noundef %2, i32 %3, ptr noundef %4) #0 {
  switch i32 %2, label %20 [
    i32 4, label %6
    i32 3, label %14
  ]

6:                                                ; preds = %5
  %7 = load i32, ptr @option_strict, align 4, !tbaa !22
  %.not = icmp eq i32 %7, 0
  br i1 %.not, label %8, label %14

8:                                                ; preds = %6
  %9 = load ptr, ptr @stderr, align 8, !tbaa !58
  %10 = load i32, ptr @git_gettext_enabled, align 4, !tbaa !22
  %.not4.i = icmp eq i32 %10, 0
  br i1 %.not4.i, label %_.exit, label %11

11:                                               ; preds = %8
  %12 = tail call ptr @dcgettext(ptr noundef null, ptr noundef nonnull @.str.8, i32 noundef 5) #9
  br label %_.exit

_.exit:                                           ; preds = %8, %11
  %.0.i = phi ptr [ %12, %11 ], [ @.str.8, %8 ]
  %13 = tail call i32 (ptr, ptr, ...) @fprintf_ln(ptr noundef %9, ptr noundef %.0.i, ptr noundef %4) #9
  br label %22

14:                                               ; preds = %6, %5
  %15 = load ptr, ptr @stderr, align 8, !tbaa !58
  %16 = load i32, ptr @git_gettext_enabled, align 4, !tbaa !22
  %.not4.i4 = icmp eq i32 %16, 0
  br i1 %.not4.i4, label %_.exit6, label %17

17:                                               ; preds = %14
  %18 = tail call ptr @dcgettext(ptr noundef null, ptr noundef nonnull @.str.9, i32 noundef 5) #9
  br label %_.exit6

_.exit6:                                          ; preds = %14, %17
  %.0.i5 = phi ptr [ %18, %17 ], [ @.str.9, %14 ]
  %19 = tail call i32 (ptr, ptr, ...) @fprintf_ln(ptr noundef %15, ptr noundef %.0.i5, ptr noundef %4) #9
  br label %22

20:                                               ; preds = %5
  %21 = tail call fastcc ptr @_(ptr noundef nonnull @.str.11)
  tail call void (ptr, i32, ptr, ...) @BUG_fl(ptr noundef nonnull @.str.10, i32 noundef 45, ptr noundef %21, i32 noundef %2) #10
  unreachable

22:                                               ; preds = %_.exit6, %_.exit
  %.0 = phi i32 [ 1, %_.exit6 ], [ 0, %_.exit ]
  ret i32 %.0
}